target datalayout = "e-m:e-p270:32:32-p271:32:32-p272:64:64-i64:64-i128:128-f80:128-n8:16:32:64-S128"
target triple = "x86_64-pc-linux-gnu"

@_ZN19AbstractInterpreter12_entry_tableE = hidden global [40 x ptr] zeroinitializer, align 16

; Function Attrs: mustprogress nounwind uwtable
define hidden void @_ZN19AbstractInterpreter32initialize_method_handle_entriesEv() #1 align 2 {
  %1 = alloca i32, align 4
  %2 = alloca i32, align 4
  store i32 8, ptr %1, align 4
  br label %3

3:                                                ; preds = %12, %0
  %4 = load i32, ptr %1, align 4
  %5 = icmp sle i32 %4, 14
  br i1 %5, label %6, label %15

6:                                                ; preds = %3
  %7 = load i32, ptr %1, align 4
  store i32 %7, ptr %2, align 4
  %8 = load ptr, ptr getelementptr inbounds ([40 x ptr], ptr @_ZN19AbstractInterpreter12_entry_tableE, i64 0, i64 7), align 8
  %9 = load i32, ptr %2, align 4
  %10 = sext i32 %9 to i64
  %11 = getelementptr inbounds [40 x ptr], ptr @_ZN19AbstractInterpreter12_entry_tableE, i64 0, i64 %10
  store ptr %8, ptr %11, align 8
  br label %12

12:                                               ; preds = %6
  %13 = load i32, ptr %1, align 4
  %14 = add nsw i32 %13, 1
  store i32 %14, ptr %1, align 4
  br label %3, !llvm.loop !6

15:                                               ; preds = %3
  ret void
}