; Function Attrs: mustprogress nofree norecurse nosync nounwind memory(readwrite, argmem: none, inaccessiblemem: none) uwtable
define hidden void @_ZN19AbstractInterpreter32initialize_method_handle_entriesEv() local_unnamed_addr #7 align 2 {
  %.pre = load ptr, ptr getelementptr inbounds (i8, ptr @_ZN19AbstractInterpreter12_entry_tableE, i64 56), align 8
  br label %1

1:                                                ; preds = %0, %1
  %indvars.iv = phi i64 [ 8, %0 ], [ %indvars.iv.next, %1 ]
  %2 = getelementptr inbounds [40 x ptr], ptr @_ZN19AbstractInterpreter12_entry_tableE, i64 0, i64 %indvars.iv
  store ptr %.pre, ptr %2, align 8
  %indvars.iv.next = add nuw nsw i64 %indvars.iv, 1
  %exitcond.not = icmp eq i64 %indvars.iv.next, 15
  br i1 %exitcond.not, label %3, label %1, !llvm.loop !7

3:                                                ; preds = %1
  ret void
}